target datalayout = "e-m:e-p270:32:32-p271:32:32-p272:64:64-i64:64-i128:128-f80:128-n8:16:32:64-S128"
target triple = "x86_64-unknown-linux-gnu"

%"struct.std::atomic.191" = type { %"struct.std::__atomic_base.192" }
%"struct.std::__atomic_base.192" = type { i8 }
%struct.grpc_closure = type { %union.anon.138, ptr, ptr, %union.anon.140 }
%union.anon.138 = type { ptr }
%union.anon.140 = type { i64 }
%struct.grpc_stream_refcount = type { %"class.grpc_core::RefCount", %struct.grpc_closure }
%"class.grpc_core::RefCount" = type { %"struct.std::atomic.162" }
%"struct.std::atomic.162" = type { %"struct.std::__atomic_base.163" }
%"struct.std::__atomic_base.163" = type { i64 }
%"class.grpc_core::IntraActivityWaiter" = type { i16 }
%"class.grpc_core::(anonymous namespace)::ConnectedChannelStream" = type <{ %"class.grpc_core::Orphanable", ptr, %"class.grpc_core::RefCountedPtr.182", %struct.grpc_closure, %struct.grpc_stream_refcount, %"class.std::unique_ptr.183", ptr, ptr, %"class.grpc_core::ExternallyObservableLatch", [4 x i8] }>
%"class.grpc_core::Orphanable" = type { ptr }
%"class.grpc_core::RefCountedPtr.182" = type { ptr }
%"class.std::unique_ptr.183" = type { %"struct.std::__uniq_ptr_data.184" }
%"struct.std::__uniq_ptr_data.184" = type { %"class.std::__uniq_ptr_impl.185" }
%"class.std::__uniq_ptr_impl.185" = type { %"class.std::tuple.186" }
%"class.std::tuple.186" = type { %"struct.std::_Tuple_impl.187" }
%"struct.std::_Tuple_impl.187" = type { %"struct.std::_Tuple_impl.188", %"struct.std::_Head_base.190" }
%"struct.std::_Tuple_impl.188" = type { %"struct.std::_Head_base.189" }
%"struct.std::_Head_base.189" = type { %"class.grpc_core::(anonymous namespace)::ConnectedChannelStream::StreamDeleter" }
%"class.grpc_core::(anonymous namespace)::ConnectedChannelStream::StreamDeleter" = type { ptr }
%"struct.std::_Head_base.190" = type { ptr }
%"class.grpc_core::ExternallyObservableLatch" = type { %"struct.std::atomic.191", %"class.grpc_core::IntraActivityWaiter" }

; Function Attrs: mustprogress nounwind uwtable
define internal noundef nonnull align 8 dereferenceable(8) ptr @_ZNSt10_Head_baseILm1EN9grpc_core12_GLOBAL__N_122ConnectedChannelStream13StreamDeleterELb0EE7_M_headERS4_(ptr noundef nonnull align 8 dereferenceable(8) %__b) #4 align 2 {
entry:
  %__b.addr = alloca ptr, align 8
  store ptr %__b, ptr %__b.addr, align 8
  %0 = load ptr, ptr %__b.addr, align 8
  %_M_head_impl = getelementptr inbounds %"struct.std::_Head_base.189", ptr %0, i32 0, i32 0
  ret ptr %_M_head_impl
}

; Function Attrs: mustprogress nounwind uwtable
define internal noundef nonnull align 8 dereferenceable(8) ptr @_ZNSt11_Tuple_implILm1EJN9grpc_core12_GLOBAL__N_122ConnectedChannelStream13StreamDeleterEEE7_M_headERS4_(ptr noundef nonnull align 8 dereferenceable(8) %__t) #4 align 2 {
entry:
  %__t.addr = alloca ptr, align 8
  store ptr %__t, ptr %__t.addr, align 8
  %0 = load ptr, ptr %__t.addr, align 8
  %call = call noundef nonnull align 8 dereferenceable(8) ptr @_ZNSt10_Head_baseILm1EN9grpc_core12_GLOBAL__N_122ConnectedChannelStream13StreamDeleterELb0EE7_M_headERS4_(ptr noundef nonnull align 8 dereferenceable(8) %0) #3
  ret ptr %call
}

; Function Attrs: mustprogress nounwind uwtable
define linkonce_odr noundef nonnull align 8 dereferenceable(8) ptr @_ZNSt10_Head_baseILm0EP11grpc_streamLb0EE7_M_headERS2_(ptr noundef nonnull align 8 dereferenceable(8) %__b) #4 comdat align 2 {
entry:
  %__b.addr = alloca ptr, align 8
  store ptr %__b, ptr %__b.addr, align 8
  %0 = load ptr, ptr %__b.addr, align 8
  %_M_head_impl = getelementptr inbounds %"struct.std::_Head_base.190", ptr %0, i32 0, i32 0
  ret ptr %_M_head_impl
}

; Function Attrs: mustprogress nounwind uwtable
define internal noundef nonnull align 8 dereferenceable(8) ptr @_ZSt12__get_helperILm1EN9grpc_core12_GLOBAL__N_122ConnectedChannelStream13StreamDeleterEJEERT0_RSt11_Tuple_implIXT_EJS4_DpT1_EE(ptr noundef nonnull align 8 dereferenceable(8) %__t) #4 {
entry:
  %__t.addr = alloca ptr, align 8
  store ptr %__t, ptr %__t.addr, align 8
  %0 = load ptr, ptr %__t.addr, align 8
  %call = call noundef nonnull align 8 dereferenceable(8) ptr @_ZNSt11_Tuple_implILm1EJN9grpc_core12_GLOBAL__N_122ConnectedChannelStream13StreamDeleterEEE7_M_headERS4_(ptr noundef nonnull align 8 dereferenceable(8) %0) #3
  ret ptr %call
}

; Function Attrs: mustprogress nounwind uwtable
define internal noundef nonnull align 8 dereferenceable(8) ptr @_ZNSt11_Tuple_implILm0EJP11grpc_streamN9grpc_core12_GLOBAL__N_122ConnectedChannelStream13StreamDeleterEEE7_M_headERS6_(ptr noundef nonnull align 8 dereferenceable(16) %__t) #4 align 2 {
entry:
  %__t.addr = alloca ptr, align 8
  store ptr %__t, ptr %__t.addr, align 8
  %0 = load ptr, ptr %__t.addr, align 8
  %add.ptr = getelementptr inbounds i8, ptr %0, i64 8
  %call = call noundef nonnull align 8 dereferenceable(8) ptr @_ZNSt10_Head_baseILm0EP11grpc_streamLb0EE7_M_headERS2_(ptr noundef nonnull align 8 dereferenceable(8) %add.ptr) #3
  ret ptr %call
}

; Function Attrs: mustprogress nounwind uwtable
define internal noundef nonnull align 8 dereferenceable(8) ptr @_ZSt3getILm1EJP11grpc_streamN9grpc_core12_GLOBAL__N_122ConnectedChannelStream13StreamDeleterEEERNSt13tuple_elementIXT_ESt5tupleIJDpT0_EEE4typeERSA_(ptr noundef nonnull align 8 dereferenceable(16) %__t) #4 {
entry:
  %__t.addr = alloca ptr, align 8
  store ptr %__t, ptr %__t.addr, align 8
  %0 = load ptr, ptr %__t.addr, align 8
  %call = call noundef nonnull align 8 dereferenceable(8) ptr @_ZSt12__get_helperILm1EN9grpc_core12_GLOBAL__N_122ConnectedChannelStream13StreamDeleterEJEERT0_RSt11_Tuple_implIXT_EJS4_DpT1_EE(ptr noundef nonnull align 8 dereferenceable(8) %0) #3
  ret ptr %call
}

; Function Attrs: mustprogress nounwind uwtable
define internal noundef nonnull align 8 dereferenceable(8) ptr @_ZSt12__get_helperILm0EP11grpc_streamJN9grpc_core12_GLOBAL__N_122ConnectedChannelStream13StreamDeleterEEERT0_RSt11_Tuple_implIXT_EJS6_DpT1_EE(ptr noundef nonnull align 8 dereferenceable(16) %__t) #4 {
entry:
  %__t.addr = alloca ptr, align 8
  store ptr %__t, ptr %__t.addr, align 8
  %0 = load ptr, ptr %__t.addr, align 8
  %call = call noundef nonnull align 8 dereferenceable(8) ptr @_ZNSt11_Tuple_implILm0EJP11grpc_streamN9grpc_core12_GLOBAL__N_122ConnectedChannelStream13StreamDeleterEEE7_M_headERS6_(ptr noundef nonnull align 8 dereferenceable(16) %0) #3
  ret ptr %call
}

; Function Attrs: mustprogress nounwind uwtable
define internal noundef ptr @_ZN9grpc_core12_GLOBAL__N_122ConnectedChannelStream24stream_destroyed_closureEv(ptr noundef nonnull align 8 dereferenceable(132) %this) #4 align 2 {
entry:
  %this.addr = alloca ptr, align 8
  store ptr %this, ptr %this.addr, align 8
  %this1 = load ptr, ptr %this.addr, align 8
  %stream_destroyed_ = getelementptr inbounds %"class.grpc_core::(anonymous namespace)::ConnectedChannelStream", ptr %this1, i32 0, i32 3
  ret ptr %stream_destroyed_
}

; Function Attrs: mustprogress nounwind uwtable
define internal noundef ptr @_ZN9grpc_core12_GLOBAL__N_122ConnectedChannelStream9transportEv(ptr noundef nonnull align 8 dereferenceable(132) %this) #4 align 2 {
entry:
  %this.addr = alloca ptr, align 8
  store ptr %this, ptr %this.addr, align 8
  %this1 = load ptr, ptr %this.addr, align 8
  %transport_ = getelementptr inbounds %"class.grpc_core::(anonymous namespace)::ConnectedChannelStream", ptr %this1, i32 0, i32 1
  %0 = load ptr, ptr %transport_, align 8
  ret ptr %0
}

; Function Attrs: mustprogress nounwind uwtable
define internal noundef nonnull align 8 dereferenceable(8) ptr @_ZNSt15__uniq_ptr_implI11grpc_streamN9grpc_core12_GLOBAL__N_122ConnectedChannelStream13StreamDeleterEE10_M_deleterEv(ptr noundef nonnull align 8 dereferenceable(16) %this) #4 align 2 {
entry:
  %this.addr = alloca ptr, align 8
  store ptr %this, ptr %this.addr, align 8
  %this1 = load ptr, ptr %this.addr, align 8
  %_M_t = getelementptr inbounds %"class.std::__uniq_ptr_impl.185", ptr %this1, i32 0, i32 0
  %call = call noundef nonnull align 8 dereferenceable(8) ptr @_ZSt3getILm1EJP11grpc_streamN9grpc_core12_GLOBAL__N_122ConnectedChannelStream13StreamDeleterEEERNSt13tuple_elementIXT_ESt5tupleIJDpT0_EEE4typeERSA_(ptr noundef nonnull align 8 dereferenceable(16) %_M_t) #3
  ret ptr %call
}

; Function Attrs: mustprogress nounwind uwtable
define internal noundef nonnull align 8 dereferenceable(8) ptr @_ZSt3getILm0EJP11grpc_streamN9grpc_core12_GLOBAL__N_122ConnectedChannelStream13StreamDeleterEEERNSt13tuple_elementIXT_ESt5tupleIJDpT0_EEE4typeERSA_(ptr noundef nonnull align 8 dereferenceable(16) %__t) #4 {
entry:
  %__t.addr = alloca ptr, align 8
  store ptr %__t, ptr %__t.addr, align 8
  %0 = load ptr, ptr %__t.addr, align 8
  %call = call noundef nonnull align 8 dereferenceable(8) ptr @_ZSt12__get_helperILm0EP11grpc_streamJN9grpc_core12_GLOBAL__N_122ConnectedChannelStream13StreamDeleterEEERT0_RSt11_Tuple_implIXT_EJS6_DpT1_EE(ptr noundef nonnull align 8 dereferenceable(16) %0) #3
  ret ptr %call
}

; Function Attrs: mustprogress uwtable
define internal void @_ZNK9grpc_core12_GLOBAL__N_122ConnectedChannelStream13StreamDeleterclEP11grpc_stream(ptr noundef nonnull align 8 dereferenceable(8) %this, ptr noundef %stream) #5 align 2 {
entry:
  %this.addr = alloca ptr, align 8
  %stream.addr = alloca ptr, align 8
  store ptr %this, ptr %this.addr, align 8
  store ptr %stream, ptr %stream.addr, align 8
  %this1 = load ptr, ptr %this.addr, align 8
  %0 = load ptr, ptr %stream.addr, align 8
  %cmp = icmp eq ptr %0, null
  br i1 %cmp, label %if.then, label %if.end

if.then:                                          ; preds = %entry
  br label %return

if.end:                                           ; preds = %entry
  %impl_ = getelementptr inbounds %"class.grpc_core::(anonymous namespace)::ConnectedChannelStream::StreamDeleter", ptr %this1, i32 0, i32 0
  %1 = load ptr, ptr %impl_, align 8
  %call = call noundef ptr @_ZN9grpc_core12_GLOBAL__N_122ConnectedChannelStream9transportEv(ptr noundef nonnull align 8 dereferenceable(132) %1)
  %vtable = load ptr, ptr %call, align 8
  %vfn = getelementptr inbounds ptr, ptr %vtable, i64 3
  %2 = load ptr, ptr %vfn, align 8
  %call2 = call noundef ptr %2(ptr noundef nonnull align 8 dereferenceable(8) %call)
  %3 = load ptr, ptr %stream.addr, align 8
  %impl_3 = getelementptr inbounds %"class.grpc_core::(anonymous namespace)::ConnectedChannelStream::StreamDeleter", ptr %this1, i32 0, i32 0
  %4 = load ptr, ptr %impl_3, align 8
  %call4 = call noundef ptr @_ZN9grpc_core12_GLOBAL__N_122ConnectedChannelStream24stream_destroyed_closureEv(ptr noundef nonnull align 8 dereferenceable(132) %4)
  %vtable5 = load ptr, ptr %call2, align 8
  %vfn6 = getelementptr inbounds ptr, ptr %vtable5, i64 4
  %5 = load ptr, ptr %vfn6, align 8
  call void %5(ptr noundef nonnull align 8 dereferenceable(8) %call2, ptr noundef %3, ptr noundef %call4)
  br label %return

return:                                           ; preds = %if.end, %if.then
  ret void
}

; Function Attrs: mustprogress nounwind uwtable
define internal noundef nonnull align 8 dereferenceable(8) ptr @_ZNSt10unique_ptrI11grpc_streamN9grpc_core12_GLOBAL__N_122ConnectedChannelStream13StreamDeleterEE11get_deleterEv(ptr noundef nonnull align 8 dereferenceable(16) %this) #4 align 2 {
entry:
  %this.addr = alloca ptr, align 8
  store ptr %this, ptr %this.addr, align 8
  %this1 = load ptr, ptr %this.addr, align 8
  %_M_t = getelementptr inbounds %"class.std::unique_ptr.183", ptr %this1, i32 0, i32 0
  %call = call noundef nonnull align 8 dereferenceable(8) ptr @_ZNSt15__uniq_ptr_implI11grpc_streamN9grpc_core12_GLOBAL__N_122ConnectedChannelStream13StreamDeleterEE10_M_deleterEv(ptr noundef nonnull align 8 dereferenceable(16) %_M_t) #3
  ret ptr %call
}

; Function Attrs: mustprogress nounwind uwtable
define internal noundef nonnull align 8 dereferenceable(8) ptr @_ZNSt15__uniq_ptr_implI11grpc_streamN9grpc_core12_GLOBAL__N_122ConnectedChannelStream13StreamDeleterEE6_M_ptrEv(ptr noundef nonnull align 8 dereferenceable(16) %this) #4 align 2 {
entry:
  %this.addr = alloca ptr, align 8
  store ptr %this, ptr %this.addr, align 8
  %this1 = load ptr, ptr %this.addr, align 8
  %_M_t = getelementptr inbounds %"class.std::__uniq_ptr_impl.185", ptr %this1, i32 0, i32 0
  %call = call noundef nonnull align 8 dereferenceable(8) ptr @_ZSt3getILm0EJP11grpc_streamN9grpc_core12_GLOBAL__N_122ConnectedChannelStream13StreamDeleterEEERNSt13tuple_elementIXT_ESt5tupleIJDpT0_EEE4typeERSA_(ptr noundef nonnull align 8 dereferenceable(16) %_M_t) #3
  ret ptr %call
}

; Function Attrs: mustprogress nounwind uwtable
define internal void @_ZNSt10unique_ptrI11grpc_streamN9grpc_core12_GLOBAL__N_122ConnectedChannelStream13StreamDeleterEED2Ev(ptr noundef nonnull align 8 dereferenceable(16) %this) unnamed_addr #4 align 2 personality ptr @__gxx_personality_v0 {
entry:
  %this.addr = alloca ptr, align 8
  %__ptr = alloca ptr, align 8
  store ptr %this, ptr %this.addr, align 8
  %this1 = load ptr, ptr %this.addr, align 8
  %_M_t = getelementptr inbounds %"class.std::unique_ptr.183", ptr %this1, i32 0, i32 0
  %call = call noundef nonnull align 8 dereferenceable(8) ptr @_ZNSt15__uniq_ptr_implI11grpc_streamN9grpc_core12_GLOBAL__N_122ConnectedChannelStream13StreamDeleterEE6_M_ptrEv(ptr noundef nonnull align 8 dereferenceable(16) %_M_t) #3
  store ptr %call, ptr %__ptr, align 8
  %0 = load ptr, ptr %__ptr, align 8
  %1 = load ptr, ptr %0, align 8
  %cmp = icmp ne ptr %1, null
  br i1 %cmp, label %if.then, label %if.end

if.then:                                          ; preds = %entry
  %call2 = call noundef nonnull align 8 dereferenceable(8) ptr @_ZNSt10unique_ptrI11grpc_streamN9grpc_core12_GLOBAL__N_122ConnectedChannelStream13StreamDeleterEE11get_deleterEv(ptr noundef nonnull align 8 dereferenceable(16) %this1) #3
  %2 = load ptr, ptr %__ptr, align 8
  %3 = load ptr, ptr %2, align 8
  invoke void @_ZNK9grpc_core12_GLOBAL__N_122ConnectedChannelStream13StreamDeleterclEP11grpc_stream(ptr noundef nonnull align 8 dereferenceable(8) %call2, ptr noundef %3)
          to label %invoke.cont unwind label %terminate.lpad

invoke.cont:                                      ; preds = %if.then
  br label %if.end

if.end:                                           ; preds = %invoke.cont, %entry
  %4 = load ptr, ptr %__ptr, align 8
  store ptr null, ptr %4, align 8
  ret void

terminate.lpad:                                   ; preds = %if.then
  %5 = landingpad { ptr, i32 }
          catch ptr null
  %6 = extractvalue { ptr, i32 } %5, 0
  call void @__clang_call_terminate(ptr %6) #16
  unreachable
}