; Function Attrs: mustprogress nounwind uwtable
define internal fastcc void @_ZNSt10unique_ptrI11grpc_streamN9grpc_core12_GLOBAL__N_122ConnectedChannelStream13StreamDeleterEED2Ev(ptr nocapture noundef nonnull align 8 dereferenceable(16) %this) unnamed_addr #13 align 2 personality ptr @__gxx_personality_v0 {
entry:
  %add.ptr.i.i.i.i = getelementptr inbounds i8, ptr %this, i64 8
  %0 = load ptr, ptr %add.ptr.i.i.i.i, align 8
  %cmp.not = icmp eq ptr %0, null
  br i1 %cmp.not, label %if.end, label %if.end.i

if.end.i:                                         ; preds = %entry
  %1 = load ptr, ptr %this, align 8
  %2 = getelementptr i8, ptr %1, i64 8
  %.val.i = load ptr, ptr %2, align 8
  %vtable.i = load ptr, ptr %.val.i, align 8
  %vfn.i = getelementptr inbounds i8, ptr %vtable.i, i64 24
  %3 = load ptr, ptr %vfn.i, align 8
  %call2.i3 = invoke noundef ptr %3(ptr noundef nonnull align 8 dereferenceable(8) %.val.i)
          to label %call2.i.noexc unwind label %terminate.lpad

call2.i.noexc:                                    ; preds = %if.end.i
  %4 = load ptr, ptr %this, align 8
  %stream_destroyed_.i.i = getelementptr inbounds i8, ptr %4, i64 24
  %vtable5.i = load ptr, ptr %call2.i3, align 8
  %vfn6.i = getelementptr inbounds i8, ptr %vtable5.i, i64 32
  %5 = load ptr, ptr %vfn6.i, align 8
  invoke void %5(ptr noundef nonnull align 8 dereferenceable(8) %call2.i3, ptr noundef nonnull %0, ptr noundef nonnull %stream_destroyed_.i.i)
          to label %if.end unwind label %terminate.lpad

if.end:                                           ; preds = %call2.i.noexc, %entry
  store ptr null, ptr %add.ptr.i.i.i.i, align 8
  ret void

terminate.lpad:                                   ; preds = %call2.i.noexc, %if.end.i
  %6 = landingpad { ptr, i32 }
          catch ptr null
  %7 = extractvalue { ptr, i32 } %6, 0
  tail call void @__clang_call_terminate(ptr %7) #24
  unreachable
}